; ModuleID = '38/1542.c'
source_filename = "38/1542.c"
target datalayout = "e-m:e-p270:32:32-p271:32:32-p272:64:64-i64:64-f80:128-n8:16:32:64-S128"
target triple = "x86_64-pc-linux-gnu"

@.str = private unnamed_addr constant [3 x i8] c"%d\00", align 1
@.str.1 = private unnamed_addr constant [4 x i8] c"%lf\00", align 1
@.str.2 = private unnamed_addr constant [6 x i8] c"%.5f\0A\00", align 1

; Function Attrs: noinline nounwind uwtable
define dso_local void @main() #0 {
  %1 = alloca double*, align 8
  %2 = alloca double, align 8
  %3 = alloca double, align 8
  %4 = alloca i32, align 4
  %5 = alloca i32, align 4
  %6 = alloca i32, align 4
  %7 = alloca i32, align 4
  %8 = alloca i32, align 4
  %9 = alloca i32, align 4
  %10 = call i32 (i8*, ...) @__isoc99_scanf(i8* getelementptr inbounds ([3 x i8], [3 x i8]* @.str, i64 0, i64 0), i32* %7)
  store i32 0, i32* %5, align 4
  br label %11

11:                                               ; preds = %83, %0
  %12 = load i32, i32* %5, align 4
  %13 = load i32, i32* %7, align 4
  %14 = icmp slt i32 %12, %13
  br i1 %14, label %15, label %86

15:                                               ; preds = %11
  %16 = call i32 (i8*, ...) @__isoc99_scanf(i8* getelementptr inbounds ([3 x i8], [3 x i8]* @.str, i64 0, i64 0), i32* %4)
  store double 0.000000e+00, double* %2, align 8
  %17 = load i32, i32* %4, align 4
  %18 = add nsw i32 %17, 1
  %19 = sext i32 %18 to i64
  %20 = mul i64 8, %19
  %21 = call noalias i8* @malloc(i64 %20) #3
  %22 = bitcast i8* %21 to double*
  store double* %22, double** %1, align 8
  store i32 0, i32* %6, align 4
  br label %23

23:                                               ; preds = %40, %15
  %24 = load i32, i32* %6, align 4
  %25 = load i32, i32* %4, align 4
  %26 = icmp slt i32 %24, %25
  br i1 %26, label %27, label %43

27:                                               ; preds = %23
  %28 = load double*, double** %1, align 8
  %29 = load i32, i32* %6, align 4
  %30 = sext i32 %29 to i64
  %31 = getelementptr inbounds double, double* %28, i64 %30
  %32 = call i32 (i8*, ...) @__isoc99_scanf(i8* getelementptr inbounds ([4 x i8], [4 x i8]* @.str.1, i64 0, i64 0), double* %31)
  %33 = load double, double* %2, align 8
  %34 = load double*, double** %1, align 8
  %35 = load i32, i32* %6, align 4
  %36 = sext i32 %35 to i64
  %37 = getelementptr inbounds double, double* %34, i64 %36
  %38 = load double, double* %37, align 8
  %39 = fadd double %33, %38
  store double %39, double* %2, align 8
  br label %40

40:                                               ; preds = %27
  %41 = load i32, i32* %6, align 4
  %42 = add nsw i32 %41, 1
  store i32 %42, i32* %6, align 4
  br label %23

43:                                               ; preds = %23
  %44 = load double, double* %2, align 8
  %45 = load i32, i32* %4, align 4
  %46 = sitofp i32 %45 to double
  %47 = fdiv double %44, %46
  store double %47, double* %2, align 8
  store double 0.000000e+00, double* %3, align 8
  store i32 0, i32* %6, align 4
  br label %48

48:                                               ; preds = %70, %43
  %49 = load i32, i32* %6, align 4
  %50 = load i32, i32* %4, align 4
  %51 = icmp slt i32 %49, %50
  br i1 %51, label %52, label %73

52:                                               ; preds = %48
  %53 = load double, double* %3, align 8
  %54 = load double*, double** %1, align 8
  %55 = load i32, i32* %6, align 4
  %56 = sext i32 %55 to i64
  %57 = getelementptr inbounds double, double* %54, i64 %56
  %58 = load double, double* %57, align 8
  %59 = load double, double* %2, align 8
  %60 = fsub double %58, %59
  %61 = load double*, double** %1, align 8
  %62 = load i32, i32* %6, align 4
  %63 = sext i32 %62 to i64
  %64 = getelementptr inbounds double, double* %61, i64 %63
  %65 = load double, double* %64, align 8
  %66 = load double, double* %2, align 8
  %67 = fsub double %65, %66
  %68 = fmul double %60, %67
  %69 = fadd double %53, %68
  store double %69, double* %3, align 8
  br label %70

70:                                               ; preds = %52
  %71 = load i32, i32* %6, align 4
  %72 = add nsw i32 %71, 1
  store i32 %72, i32* %6, align 4
  br label %48

73:                                               ; preds = %48
  %74 = load double, double* %3, align 8
  %75 = load i32, i32* %4, align 4
  %76 = sitofp i32 %75 to double
  %77 = fdiv double %74, %76
  %78 = call double @sqrt(double %77) #3
  store double %78, double* %3, align 8
  %79 = load double, double* %3, align 8
  %80 = call i32 (i8*, ...) @printf(i8* getelementptr inbounds ([6 x i8], [6 x i8]* @.str.2, i64 0, i64 0), double %79)
  %81 = load double*, double** %1, align 8
  %82 = bitcast double* %81 to i8*
  call void @free(i8* %82) #3
  br label %83

83:                                               ; preds = %73
  %84 = load i32, i32* %5, align 4
  %85 = add nsw i32 %84, 1
  store i32 %85, i32* %5, align 4
  br label %11

86:                                               ; preds = %11
  ret void
}

declare dso_local i32 @__isoc99_scanf(i8*, ...) #1

; Function Attrs: nounwind
declare dso_local noalias i8* @malloc(i64) #2

; Function Attrs: nounwind
declare dso_local double @sqrt(double) #2

declare dso_local i32 @printf(i8*, ...) #1

; Function Attrs: nounwind
declare dso_local void @free(i8*) #2


!llvm.module.flags = !{!0}
!llvm.ident = !{!1}

!0 = !{i32 1, !"wchar_size", i32 4}
!1 = !{!"clang version 10.0.0-4ubuntu1 "}
